target datalayout = "e-m:e-p270:32:32-p271:32:32-p272:64:64-i64:64-i128:128-f80:128-n8:16:32:64-S128"
target triple = "x86_64-pc-linux-gnu"

%"class.google::protobuf::internal::LogMessage" = type { i32, ptr, i32, %"class.std::__cxx11::basic_string" }
%"class.std::__cxx11::basic_string" = type { %"struct.std::__cxx11::basic_string<char>::_Alloc_hider", i64, %union.anon }
%"struct.std::__cxx11::basic_string<char>::_Alloc_hider" = type { ptr }
%union.anon = type { i64, [8 x i8] }
%"class.google::protobuf::internal::LogFinisher" = type { i8 }
%"class.google::protobuf::strings::ByteSink" = type { ptr }
%"class.google::protobuf::strings::GrowingArrayByteSink" = type { %"class.google::protobuf::strings::ByteSink", i64, ptr, i64 }

@.str = private unnamed_addr constant [40 x i8] c"third_party/protobuf-lite/bytestream.cc\00", align 1
@.str.6 = private unnamed_addr constant [63 x i8] c"CHECK failed: !(buf_ <= bytes && bytes < (buf_ + capacity_)): \00", align 1
@.str.7 = private unnamed_addr constant [38 x i8] c"Append() bytes[] overlaps with buf_[]\00", align 1

; Function Attrs: mustprogress nounwind uwtable
define linkonce_odr noundef nonnull align 8 dereferenceable(8) ptr @_ZSt3maxImERKT_S2_S2_(ptr noundef nonnull align 8 dereferenceable(8) %0, ptr noundef nonnull align 8 dereferenceable(8) %1) #5 comdat {
  %3 = alloca ptr, align 8
  %4 = alloca ptr, align 8
  %5 = alloca ptr, align 8
  store ptr %0, ptr %4, align 8
  store ptr %1, ptr %5, align 8
  %6 = load ptr, ptr %4, align 8
  %7 = load i64, ptr %6, align 8
  %8 = load ptr, ptr %5, align 8
  %9 = load i64, ptr %8, align 8
  %10 = icmp ult i64 %7, %9
  br i1 %10, label %11, label %13

11:                                               ; preds = %2
  %12 = load ptr, ptr %5, align 8
  store ptr %12, ptr %3, align 8
  br label %15

13:                                               ; preds = %2
  %14 = load ptr, ptr %4, align 8
  store ptr %14, ptr %3, align 8
  br label %15

15:                                               ; preds = %13, %11
  %16 = load ptr, ptr %3, align 8
  ret ptr %16
}

; Function Attrs: mustprogress uwtable
define void @_ZN6google8protobuf7strings20GrowingArrayByteSink6ExpandEm(ptr noundef nonnull align 8 dereferenceable(32) %0, i64 noundef %1) #4 align 2 {
  %3 = alloca ptr, align 8
  %4 = alloca i64, align 8
  %5 = alloca i64, align 8
  %6 = alloca i64, align 8
  %7 = alloca i64, align 8
  %8 = alloca ptr, align 8
  store ptr %0, ptr %3, align 8
  store i64 %1, ptr %4, align 8
  %9 = load ptr, ptr %3, align 8
  %10 = getelementptr inbounds %"class.google::protobuf::strings::GrowingArrayByteSink", ptr %9, i32 0, i32 1
  %11 = load i64, ptr %10, align 8
  %12 = load i64, ptr %4, align 8
  %13 = add i64 %11, %12
  store i64 %13, ptr %6, align 8
  %14 = getelementptr inbounds %"class.google::protobuf::strings::GrowingArrayByteSink", ptr %9, i32 0, i32 1
  %15 = load i64, ptr %14, align 8
  %16 = mul i64 3, %15
  %17 = udiv i64 %16, 2
  store i64 %17, ptr %7, align 8
  %18 = call noundef nonnull align 8 dereferenceable(8) ptr @_ZSt3maxImERKT_S2_S2_(ptr noundef nonnull align 8 dereferenceable(8) %6, ptr noundef nonnull align 8 dereferenceable(8) %7)
  %19 = load i64, ptr %18, align 8
  store i64 %19, ptr %5, align 8
  %20 = load i64, ptr %5, align 8
  %21 = call noalias noundef nonnull ptr @_Znam(i64 noundef %20) #10
  store ptr %21, ptr %8, align 8
  %22 = load ptr, ptr %8, align 8
  %23 = getelementptr inbounds %"class.google::protobuf::strings::GrowingArrayByteSink", ptr %9, i32 0, i32 2
  %24 = load ptr, ptr %23, align 8
  %25 = getelementptr inbounds %"class.google::protobuf::strings::GrowingArrayByteSink", ptr %9, i32 0, i32 3
  %26 = load i64, ptr %25, align 8
  call void @llvm.memcpy.p0.p0.i64(ptr align 1 %22, ptr align 1 %24, i64 %26, i1 false)
  %27 = getelementptr inbounds %"class.google::protobuf::strings::GrowingArrayByteSink", ptr %9, i32 0, i32 2
  %28 = load ptr, ptr %27, align 8
  %29 = icmp eq ptr %28, null
  br i1 %29, label %31, label %30

30:                                               ; preds = %2
  call void @_ZdaPv(ptr noundef %28) #11
  br label %31

31:                                               ; preds = %30, %2
  %32 = load ptr, ptr %8, align 8
  %33 = getelementptr inbounds %"class.google::protobuf::strings::GrowingArrayByteSink", ptr %9, i32 0, i32 2
  store ptr %32, ptr %33, align 8
  %34 = load i64, ptr %5, align 8
  %35 = getelementptr inbounds %"class.google::protobuf::strings::GrowingArrayByteSink", ptr %9, i32 0, i32 1
  store i64 %34, ptr %35, align 8
  ret void
}

; Function Attrs: mustprogress uwtable
define void @_ZN6google8protobuf7strings20GrowingArrayByteSink6AppendEPKcm(ptr noundef nonnull align 8 dereferenceable(32) %0, ptr noundef %1, i64 noundef %2) unnamed_addr #4 align 2 personality ptr @__gxx_personality_v0 {
  %4 = alloca ptr, align 8
  %5 = alloca ptr, align 8
  %6 = alloca i64, align 8
  %7 = alloca i64, align 8
  %8 = alloca %"class.google::protobuf::internal::LogMessage", align 8
  %9 = alloca i1, align 1
  %10 = alloca ptr, align 8
  %11 = alloca i32, align 4
  %12 = alloca %"class.google::protobuf::internal::LogFinisher", align 1
  store ptr %0, ptr %4, align 8
  store ptr %1, ptr %5, align 8
  store i64 %2, ptr %6, align 8
  %13 = load ptr, ptr %4, align 8
  %14 = getelementptr inbounds %"class.google::protobuf::strings::GrowingArrayByteSink", ptr %13, i32 0, i32 1
  %15 = load i64, ptr %14, align 8
  %16 = getelementptr inbounds %"class.google::protobuf::strings::GrowingArrayByteSink", ptr %13, i32 0, i32 3
  %17 = load i64, ptr %16, align 8
  %18 = sub i64 %15, %17
  store i64 %18, ptr %7, align 8
  %19 = load ptr, ptr %5, align 8
  %20 = getelementptr inbounds %"class.google::protobuf::strings::GrowingArrayByteSink", ptr %13, i32 0, i32 2
  %21 = load ptr, ptr %20, align 8
  %22 = getelementptr inbounds %"class.google::protobuf::strings::GrowingArrayByteSink", ptr %13, i32 0, i32 3
  %23 = load i64, ptr %22, align 8
  %24 = getelementptr inbounds i8, ptr %21, i64 %23
  %25 = icmp ne ptr %19, %24
  br i1 %25, label %26, label %60

26:                                               ; preds = %3
  br label %27

27:                                               ; preds = %51, %26
  br i1 false, label %28, label %59

28:                                               ; preds = %27
  %29 = getelementptr inbounds %"class.google::protobuf::strings::GrowingArrayByteSink", ptr %13, i32 0, i32 2
  %30 = load ptr, ptr %29, align 8
  %31 = load ptr, ptr %5, align 8
  %32 = icmp ule ptr %30, %31
  store i1 false, ptr %9, align 1
  br i1 %32, label %33, label %41

33:                                               ; preds = %28
  %34 = load ptr, ptr %5, align 8
  %35 = getelementptr inbounds %"class.google::protobuf::strings::GrowingArrayByteSink", ptr %13, i32 0, i32 2
  %36 = load ptr, ptr %35, align 8
  %37 = getelementptr inbounds %"class.google::protobuf::strings::GrowingArrayByteSink", ptr %13, i32 0, i32 1
  %38 = load i64, ptr %37, align 8
  %39 = getelementptr inbounds i8, ptr %36, i64 %38
  %40 = icmp ult ptr %34, %39
  br i1 %40, label %42, label %41

41:                                               ; preds = %33, %28
  br label %48

42:                                               ; preds = %33
  call void @_ZN6google8protobuf8internal10LogMessageC1ENS0_8LogLevelEPKci(ptr noundef nonnull align 8 dereferenceable(56) %8, i32 noundef 3, ptr noundef @.str, i32 noundef 102)
  store i1 true, ptr %9, align 1
  %43 = invoke noundef nonnull align 8 dereferenceable(56) ptr @_ZN6google8protobuf8internal10LogMessagelsEPKc(ptr noundef nonnull align 8 dereferenceable(56) %8, ptr noundef @.str.6)
          to label %44 unwind label %52

44:                                               ; preds = %42
  %45 = invoke noundef nonnull align 8 dereferenceable(56) ptr @_ZN6google8protobuf8internal10LogMessagelsEPKc(ptr noundef nonnull align 8 dereferenceable(56) %43, ptr noundef @.str.7)
          to label %46 unwind label %52

46:                                               ; preds = %44
  invoke void @_ZN6google8protobuf8internal11LogFinisheraSERNS1_10LogMessageE(ptr noundef nonnull align 1 dereferenceable(1) %12, ptr noundef nonnull align 8 dereferenceable(56) %45)
          to label %47 unwind label %52

47:                                               ; preds = %46
  br label %48

48:                                               ; preds = %47, %41
  %49 = load i1, ptr %9, align 1
  br i1 %49, label %50, label %51

50:                                               ; preds = %48
  call void @_ZN6google8protobuf8internal10LogMessageD1Ev(ptr noundef nonnull align 8 dereferenceable(56) %8) #3
  br label %51

51:                                               ; preds = %50, %48
  br label %27, !llvm.loop !8

52:                                               ; preds = %46, %44, %42
  %53 = landingpad { ptr, i32 }
          cleanup
  %54 = extractvalue { ptr, i32 } %53, 0
  store ptr %54, ptr %10, align 8
  %55 = extractvalue { ptr, i32 } %53, 1
  store i32 %55, ptr %11, align 4
  %56 = load i1, ptr %9, align 1
  br i1 %56, label %57, label %58

57:                                               ; preds = %52
  call void @_ZN6google8protobuf8internal10LogMessageD1Ev(ptr noundef nonnull align 8 dereferenceable(56) %8) #3
  br label %58

58:                                               ; preds = %57, %52
  br label %92

59:                                               ; preds = %27
  br label %60

60:                                               ; preds = %59, %3
  %61 = load i64, ptr %6, align 8
  %62 = load i64, ptr %7, align 8
  %63 = icmp ugt i64 %61, %62
  br i1 %63, label %64, label %68

64:                                               ; preds = %60
  %65 = load i64, ptr %6, align 8
  %66 = load i64, ptr %7, align 8
  %67 = sub i64 %65, %66
  call void @_ZN6google8protobuf7strings20GrowingArrayByteSink6ExpandEm(ptr noundef nonnull align 8 dereferenceable(32) %13, i64 noundef %67)
  br label %68

68:                                               ; preds = %64, %60
  %69 = load i64, ptr %6, align 8
  %70 = icmp ugt i64 %69, 0
  br i1 %70, label %71, label %87

71:                                               ; preds = %68
  %72 = load ptr, ptr %5, align 8
  %73 = getelementptr inbounds %"class.google::protobuf::strings::GrowingArrayByteSink", ptr %13, i32 0, i32 2
  %74 = load ptr, ptr %73, align 8
  %75 = getelementptr inbounds %"class.google::protobuf::strings::GrowingArrayByteSink", ptr %13, i32 0, i32 3
  %76 = load i64, ptr %75, align 8
  %77 = getelementptr inbounds i8, ptr %74, i64 %76
  %78 = icmp ne ptr %72, %77
  br i1 %78, label %79, label %87

79:                                               ; preds = %71
  %80 = getelementptr inbounds %"class.google::protobuf::strings::GrowingArrayByteSink", ptr %13, i32 0, i32 2
  %81 = load ptr, ptr %80, align 8
  %82 = getelementptr inbounds %"class.google::protobuf::strings::GrowingArrayByteSink", ptr %13, i32 0, i32 3
  %83 = load i64, ptr %82, align 8
  %84 = getelementptr inbounds i8, ptr %81, i64 %83
  %85 = load ptr, ptr %5, align 8
  %86 = load i64, ptr %6, align 8
  call void @llvm.memcpy.p0.p0.i64(ptr align 1 %84, ptr align 1 %85, i64 %86, i1 false)
  br label %87

87:                                               ; preds = %79, %71, %68
  %88 = load i64, ptr %6, align 8
  %89 = getelementptr inbounds %"class.google::protobuf::strings::GrowingArrayByteSink", ptr %13, i32 0, i32 3
  %90 = load i64, ptr %89, align 8
  %91 = add i64 %90, %88
  store i64 %91, ptr %89, align 8
  ret void

92:                                               ; preds = %58
  %93 = load ptr, ptr %10, align 8
  %94 = load i32, ptr %11, align 4
  %95 = insertvalue { ptr, i32 } poison, ptr %93, 0
  %96 = insertvalue { ptr, i32 } %95, i32 %94, 1
  resume { ptr, i32 } %96
}