; Function Attrs: mustprogress uwtable
define void @_ZN6google8protobuf7strings20GrowingArrayByteSink6AppendEPKcm(ptr nocapture noundef nonnull align 8 dereferenceable(32) %0, ptr noundef readonly %1, i64 noundef %2) unnamed_addr #3 align 2 personality ptr @__gxx_personality_v0 {
  %4 = getelementptr inbounds i8, ptr %0, i64 8
  %5 = load i64, ptr %4, align 8
  %6 = getelementptr inbounds i8, ptr %0, i64 24
  %7 = load i64, ptr %6, align 8
  %8 = sub i64 %5, %7
  %9 = getelementptr inbounds i8, ptr %0, i64 16
  %10 = icmp ult i64 %8, %2
  br i1 %10, label %11, label %20

11:                                               ; preds = %3
  %12 = add i64 %5, %2
  %13 = sub i64 %12, %8
  %14 = mul i64 %5, 3
  %15 = lshr i64 %14, 1
  %.sroa.speculated.i = tail call i64 @llvm.umax.i64(i64 %13, i64 %15)
  %16 = tail call noalias noundef nonnull ptr @_Znam(i64 noundef %.sroa.speculated.i) #18
  %17 = load ptr, ptr %9, align 8
  tail call void @llvm.memcpy.p0.p0.i64(ptr nonnull align 1 %16, ptr align 1 %17, i64 %7, i1 false)
  %18 = icmp eq ptr %17, null
  br i1 %18, label %.thread, label %19

19:                                               ; preds = %11
  tail call void @_ZdaPv(ptr noundef nonnull %17) #19
  %.pre15.pre = load i64, ptr %6, align 8
  br label %.thread

.thread:                                          ; preds = %19, %11
  %.pre15 = phi i64 [ %.pre15.pre, %19 ], [ %7, %11 ]
  store ptr %16, ptr %9, align 8
  store i64 %.sroa.speculated.i, ptr %4, align 8
  br label %21

20:                                               ; preds = %3
  %.not = icmp eq i64 %2, 0
  br i1 %.not, label %26, label %._crit_edge

._crit_edge:                                      ; preds = %20
  %.pre = load ptr, ptr %9, align 8
  br label %21

21:                                               ; preds = %._crit_edge, %.thread
  %22 = phi i64 [ %7, %._crit_edge ], [ %.pre15, %.thread ]
  %23 = phi ptr [ %.pre, %._crit_edge ], [ %16, %.thread ]
  %24 = getelementptr inbounds i8, ptr %23, i64 %22
  %.not13 = icmp eq ptr %24, %1
  br i1 %.not13, label %26, label %25

25:                                               ; preds = %21
  tail call void @llvm.memcpy.p0.p0.i64(ptr align 1 %24, ptr align 1 %1, i64 %2, i1 false)
  %.pre16 = load i64, ptr %6, align 8
  br label %26

26:                                               ; preds = %25, %21, %20
  %27 = phi i64 [ %.pre16, %25 ], [ %22, %21 ], [ %7, %20 ]
  %28 = add i64 %27, %2
  store i64 %28, ptr %6, align 8
  ret void
}